target datalayout = "e-m:e-p270:32:32-p271:32:32-p272:64:64-i64:64-i128:128-f80:128-n8:16:32:64-S128"
target triple = "x86_64-pc-linux-gnu"

%"struct.(anonymous namespace)::NinjaMain" = type { %struct.BuildLogUser, ptr, ptr, %struct.State, %struct.RealDiskInterface, %"class.std::__cxx11::basic_string", %struct.BuildLog, %struct.DepsLog, i64 }
%struct.BuildLogUser = type { ptr }
%struct.State = type { %"class.std::unordered_map", %"class.std::map", %"class.std::vector", %struct.BindingEnv, %"class.std::vector.25" }
%"class.std::unordered_map" = type { %"class.std::_Hashtable" }
%"class.std::_Hashtable" = type { ptr, i64, %"struct.std::__detail::_Hash_node_base", i64, %"struct.std::__detail::_Prime_rehash_policy", ptr }
%"struct.std::__detail::_Hash_node_base" = type { ptr }
%"struct.std::__detail::_Prime_rehash_policy" = type { float, i64 }
%"class.std::map" = type { %"class.std::_Rb_tree" }
%"class.std::_Rb_tree" = type { %"struct.std::_Rb_tree<std::__cxx11::basic_string<char>, std::pair<const std::__cxx11::basic_string<char>, Pool *>, std::_Select1st<std::pair<const std::__cxx11::basic_string<char>, Pool *>>, std::less<std::__cxx11::basic_string<char>>>::_Rb_tree_impl" }
%"struct.std::_Rb_tree<std::__cxx11::basic_string<char>, std::pair<const std::__cxx11::basic_string<char>, Pool *>, std::_Select1st<std::pair<const std::__cxx11::basic_string<char>, Pool *>>, std::less<std::__cxx11::basic_string<char>>>::_Rb_tree_impl" = type { %"struct.std::_Rb_tree_key_compare", %"struct.std::_Rb_tree_header" }
%"struct.std::_Rb_tree_key_compare" = type { %"struct.std::less" }
%"struct.std::less" = type { i8 }
%"struct.std::_Rb_tree_header" = type { %"struct.std::_Rb_tree_node_base", i64 }
%"struct.std::_Rb_tree_node_base" = type { i32, ptr, ptr, ptr }
%"class.std::vector" = type { %"struct.std::_Vector_base" }
%"struct.std::_Vector_base" = type { %"struct.std::_Vector_base<Edge *, std::allocator<Edge *>>::_Vector_impl" }
%"struct.std::_Vector_base<Edge *, std::allocator<Edge *>>::_Vector_impl" = type { %"struct.std::_Vector_base<Edge *, std::allocator<Edge *>>::_Vector_impl_data" }
%"struct.std::_Vector_base<Edge *, std::allocator<Edge *>>::_Vector_impl_data" = type { ptr, ptr, ptr }
%struct.BindingEnv = type { %struct.Env, %"class.std::map.15", %"class.std::map.20", ptr }
%struct.Env = type { ptr }
%"class.std::map.15" = type { %"class.std::_Rb_tree.16" }
%"class.std::_Rb_tree.16" = type { %"struct.std::_Rb_tree<std::__cxx11::basic_string<char>, std::pair<const std::__cxx11::basic_string<char>, std::__cxx11::basic_string<char>>, std::_Select1st<std::pair<const std::__cxx11::basic_string<char>, std::__cxx11::basic_string<char>>>, std::less<std::__cxx11::basic_string<char>>>::_Rb_tree_impl" }
%"struct.std::_Rb_tree<std::__cxx11::basic_string<char>, std::pair<const std::__cxx11::basic_string<char>, std::__cxx11::basic_string<char>>, std::_Select1st<std::pair<const std::__cxx11::basic_string<char>, std::__cxx11::basic_string<char>>>, std::less<std::__cxx11::basic_string<char>>>::_Rb_tree_impl" = type { %"struct.std::_Rb_tree_key_compare", %"struct.std::_Rb_tree_header" }
%"class.std::map.20" = type { %"class.std::_Rb_tree.21" }
%"class.std::_Rb_tree.21" = type { %"struct.std::_Rb_tree<std::__cxx11::basic_string<char>, std::pair<const std::__cxx11::basic_string<char>, const Rule *>, std::_Select1st<std::pair<const std::__cxx11::basic_string<char>, const Rule *>>, std::less<std::__cxx11::basic_string<char>>>::_Rb_tree_impl" }
%"struct.std::_Rb_tree<std::__cxx11::basic_string<char>, std::pair<const std::__cxx11::basic_string<char>, const Rule *>, std::_Select1st<std::pair<const std::__cxx11::basic_string<char>, const Rule *>>, std::less<std::__cxx11::basic_string<char>>>::_Rb_tree_impl" = type { %"struct.std::_Rb_tree_key_compare", %"struct.std::_Rb_tree_header" }
%"class.std::vector.25" = type { %"struct.std::_Vector_base.26" }
%"struct.std::_Vector_base.26" = type { %"struct.std::_Vector_base<Node *, std::allocator<Node *>>::_Vector_impl" }
%"struct.std::_Vector_base<Node *, std::allocator<Node *>>::_Vector_impl" = type { %"struct.std::_Vector_base<Node *, std::allocator<Node *>>::_Vector_impl_data" }
%"struct.std::_Vector_base<Node *, std::allocator<Node *>>::_Vector_impl_data" = type { ptr, ptr, ptr }
%struct.RealDiskInterface = type { %struct.DiskInterface }
%struct.DiskInterface = type { %struct.FileReader }
%struct.FileReader = type { ptr }
%"class.std::__cxx11::basic_string" = type { %"struct.std::__cxx11::basic_string<char>::_Alloc_hider", i64, %union.anon }
%"struct.std::__cxx11::basic_string<char>::_Alloc_hider" = type { ptr }
%union.anon = type { i64, [8 x i8] }
%struct.BuildLog = type <{ %"class.std::unordered_map.30", ptr, %"class.std::__cxx11::basic_string", i8, [7 x i8] }>
%"class.std::unordered_map.30" = type { %"class.std::_Hashtable.31" }
%"class.std::_Hashtable.31" = type { ptr, i64, %"struct.std::__detail::_Hash_node_base", i64, %"struct.std::__detail::_Prime_rehash_policy", ptr }
%struct.DepsLog = type { i8, ptr, %"class.std::__cxx11::basic_string", %"class.std::vector.25", %"class.std::vector.44" }
%"class.std::vector.44" = type { %"struct.std::_Vector_base.45" }
%"struct.std::_Vector_base.45" = type { %"struct.std::_Vector_base<DepsLog::Deps *, std::allocator<DepsLog::Deps *>>::_Vector_impl" }
%"struct.std::_Vector_base<DepsLog::Deps *, std::allocator<DepsLog::Deps *>>::_Vector_impl" = type { %"struct.std::_Vector_base<DepsLog::Deps *, std::allocator<DepsLog::Deps *>>::_Vector_impl_data" }
%"struct.std::_Vector_base<DepsLog::Deps *, std::allocator<DepsLog::Deps *>>::_Vector_impl_data" = type { ptr, ptr, ptr }

@g_metrics = external global ptr, align 8
@.str.80 = private unnamed_addr constant [2 x i8] c"\0A\00", align 1
@.str.141 = private unnamed_addr constant [53 x i8] c"path->node hash load %.2f (%d entries / %d buckets)\0A\00", align 1

; Function Attrs: mustprogress nounwind uwtable
define linkonce_odr dso_local noundef i64 @_ZNKSt10_HashtableI11StringPieceSt4pairIKS0_P4NodeESaIS5_ENSt8__detail10_Select1stESt8equal_toIS0_ESt4hashIS0_ENS7_18_Mod_range_hashingENS7_20_Default_ranged_hashENS7_20_Prime_rehash_policyENS7_17_Hashtable_traitsILb1ELb0ELb1EEEE12bucket_countEv(ptr noundef nonnull align 8 dereferenceable(56) %0) #11 comdat align 2 {
  %2 = alloca ptr, align 8
  store ptr %0, ptr %2, align 8
  %3 = load ptr, ptr %2, align 8
  %4 = getelementptr inbounds %"class.std::_Hashtable", ptr %3, i32 0, i32 1
  %5 = load i64, ptr %4, align 8
  ret i64 %5
}

; Function Attrs: mustprogress nounwind uwtable
define linkonce_odr dso_local noundef i64 @_ZNKSt10_HashtableI11StringPieceSt4pairIKS0_P4NodeESaIS5_ENSt8__detail10_Select1stESt8equal_toIS0_ESt4hashIS0_ENS7_18_Mod_range_hashingENS7_20_Default_ranged_hashENS7_20_Prime_rehash_policyENS7_17_Hashtable_traitsILb1ELb0ELb1EEEE4sizeEv(ptr noundef nonnull align 8 dereferenceable(56) %0) #11 comdat align 2 {
  %2 = alloca ptr, align 8
  store ptr %0, ptr %2, align 8
  %3 = load ptr, ptr %2, align 8
  %4 = getelementptr inbounds %"class.std::_Hashtable", ptr %3, i32 0, i32 3
  %5 = load i64, ptr %4, align 8
  ret i64 %5
}

; Function Attrs: mustprogress nounwind uwtable
define linkonce_odr dso_local noundef i64 @_ZNKSt13unordered_mapI11StringPieceP4NodeSt4hashIS0_ESt8equal_toIS0_ESaISt4pairIKS0_S2_EEE12bucket_countEv(ptr noundef nonnull align 8 dereferenceable(56) %0) #11 comdat align 2 {
  %2 = alloca ptr, align 8
  store ptr %0, ptr %2, align 8
  %3 = load ptr, ptr %2, align 8
  %4 = getelementptr inbounds %"class.std::unordered_map", ptr %3, i32 0, i32 0
  %5 = call noundef i64 @_ZNKSt10_HashtableI11StringPieceSt4pairIKS0_P4NodeESaIS5_ENSt8__detail10_Select1stESt8equal_toIS0_ESt4hashIS0_ENS7_18_Mod_range_hashingENS7_20_Default_ranged_hashENS7_20_Prime_rehash_policyENS7_17_Hashtable_traitsILb1ELb0ELb1EEEE12bucket_countEv(ptr noundef nonnull align 8 dereferenceable(56) %4) #17
  ret i64 %5
}

; Function Attrs: mustprogress nounwind uwtable
define linkonce_odr dso_local noundef i64 @_ZNKSt13unordered_mapI11StringPieceP4NodeSt4hashIS0_ESt8equal_toIS0_ESaISt4pairIKS0_S2_EEE4sizeEv(ptr noundef nonnull align 8 dereferenceable(56) %0) #11 comdat align 2 {
  %2 = alloca ptr, align 8
  store ptr %0, ptr %2, align 8
  %3 = load ptr, ptr %2, align 8
  %4 = getelementptr inbounds %"class.std::unordered_map", ptr %3, i32 0, i32 0
  %5 = call noundef i64 @_ZNKSt10_HashtableI11StringPieceSt4pairIKS0_P4NodeESaIS5_ENSt8__detail10_Select1stESt8equal_toIS0_ESt4hashIS0_ENS7_18_Mod_range_hashingENS7_20_Default_ranged_hashENS7_20_Prime_rehash_policyENS7_17_Hashtable_traitsILb1ELb0ELb1EEEE4sizeEv(ptr noundef nonnull align 8 dereferenceable(56) %4) #17
  ret i64 %5
}

; Function Attrs: mustprogress uwtable
define internal void @_ZN12_GLOBAL__N_19NinjaMain11DumpMetricsEv(ptr noundef nonnull align 8 dereferenceable(536) %0) #2 align 2 {
  %2 = alloca ptr, align 8
  %3 = alloca i32, align 4
  %4 = alloca i32, align 4
  store ptr %0, ptr %2, align 8
  %5 = load ptr, ptr %2, align 8
  %6 = load ptr, ptr @g_metrics, align 8
  call void @_ZN7Metrics6ReportEv(ptr noundef nonnull align 8 dereferenceable(24) %6)
  %7 = call i32 (ptr, ...) @printf(ptr noundef @.str.80)
  %8 = getelementptr inbounds %"struct.(anonymous namespace)::NinjaMain", ptr %5, i32 0, i32 3
  %9 = getelementptr inbounds %struct.State, ptr %8, i32 0, i32 0
  %10 = call noundef i64 @_ZNKSt13unordered_mapI11StringPieceP4NodeSt4hashIS0_ESt8equal_toIS0_ESaISt4pairIKS0_S2_EEE4sizeEv(ptr noundef nonnull align 8 dereferenceable(56) %9) #17
  %11 = trunc i64 %10 to i32
  store i32 %11, ptr %3, align 4
  %12 = getelementptr inbounds %"struct.(anonymous namespace)::NinjaMain", ptr %5, i32 0, i32 3
  %13 = getelementptr inbounds %struct.State, ptr %12, i32 0, i32 0
  %14 = call noundef i64 @_ZNKSt13unordered_mapI11StringPieceP4NodeSt4hashIS0_ESt8equal_toIS0_ESaISt4pairIKS0_S2_EEE12bucket_countEv(ptr noundef nonnull align 8 dereferenceable(56) %13) #17
  %15 = trunc i64 %14 to i32
  store i32 %15, ptr %4, align 4
  %16 = load i32, ptr %3, align 4
  %17 = sitofp i32 %16 to double
  %18 = load i32, ptr %4, align 4
  %19 = sitofp i32 %18 to double
  %20 = fdiv double %17, %19
  %21 = load i32, ptr %3, align 4
  %22 = load i32, ptr %4, align 4
  %23 = call i32 (ptr, ...) @printf(ptr noundef @.str.141, double noundef %20, i32 noundef %21, i32 noundef %22)
  ret void
}