; Function Attrs: mustprogress norecurse uwtable
define internal fastcc void @_ZN12_GLOBAL__N_19NinjaMain11DumpMetricsEv(ptr nocapture noundef nonnull readonly align 8 dereferenceable(536) %0) unnamed_addr #10 align 2 {
  %2 = load ptr, ptr @g_metrics, align 8
  tail call void @_ZN7Metrics6ReportEv(ptr noundef nonnull align 8 dereferenceable(24) %2)
  %putchar = tail call i32 @putchar(i32 10)
  %3 = getelementptr inbounds i8, ptr %0, i64 48
  %4 = load i64, ptr %3, align 8
  %5 = trunc i64 %4 to i32
  %6 = getelementptr inbounds i8, ptr %0, i64 32
  %7 = load i64, ptr %6, align 8
  %8 = trunc i64 %7 to i32
  %9 = sitofp i32 %5 to double
  %10 = sitofp i32 %8 to double
  %11 = fdiv double %9, %10
  %12 = tail call i32 (ptr, ...) @printf(ptr noundef nonnull dereferenceable(1) @.str.141, double noundef %11, i32 noundef %5, i32 noundef %8)
  ret void
}